Certificate:
    Data:
        Version: 3 (0x2)
        Serial Number: 1 (0x1)
        Signature Algorithm: sha512WithRSAEncryption
        Issuer: C=AT, ST=Vienna, L=Vienna, O=MIO_AID, CN=localhost
        Validity
            Not Before: Nov  6 23:05:25 2022 GMT
            Not After : Nov  6 23:05:25 2023 GMT
        Subject: C=AT, ST=Vienna, O=MIO_AID, CN=localhost
        Subject Public Key Info:
            Public Key Algorithm: rsaEncryption
                RSA Public-Key: (4096 bit)
                Modulus:
                    00:b8:e5:05:9c:f3:f4:e2:bb:56:bf:0c:34:36:4a:
                    95:c8:83:c7:99:ce:ae:e6:48:d3:a5:de:31:7c:cd:
                    12:92:cb:44:31:15:74:12:88:c6:5f:4c:4a:ee:02:
                    3b:1f:bb:32:12:dc:7e:c0:c2:e1:b6:b4:3e:d8:17:
                    db:22:4c:47:7c:cf:c6:7d:10:8f:29:9f:58:7a:8e:
                    51:63:f8:f0:6c:b7:32:0c:17:e1:07:e6:32:ae:75:
                    ac:5f:20:db:4e:59:21:98:5c:fb:63:10:02:ed:c3:
                    41:65:54:4e:02:9d:35:cd:1c:d0:76:c3:ca:15:f4:
                    2d:4d:64:97:9e:aa:56:ee:9e:00:7e:e4:20:94:6e:
                    8f:7b:71:49:df:32:a8:46:d7:35:04:4a:01:4a:af:
                    85:98:52:50:c8:48:70:37:03:79:ff:30:d7:66:8f:
                    79:e6:aa:c1:68:89:d6:82:a7:b4:90:d6:03:08:6e:
                    e4:1c:a5:cb:a2:73:c8:6f:42:37:2c:79:1b:ef:02:
                    40:e9:ee:da:ba:24:0a:91:07:52:ee:46:2c:8a:80:
                    30:e9:81:72:e9:e0:63:d1:07:55:21:d5:6a:1b:25:
                    49:e0:92:db:8b:fc:0e:ec:62:ad:32:8c:05:93:9b:
                    ff:b0:ca:e1:94:8b:35:6e:c7:b9:9f:fe:4c:5f:cc:
                    6c:bd:fb:cd:09:4e:05:1b:d2:90:2f:a5:f0:34:59:
                    a6:9b:96:30:c1:d2:96:d3:39:29:72:8e:53:72:97:
                    71:74:5c:39:e7:9e:11:2b:70:a7:f4:c4:c3:cb:76:
                    ee:61:3d:c0:98:36:1c:02:0e:e6:5c:c8:4d:94:84:
                    26:4b:e6:87:3e:30:ce:91:ba:d9:c3:5f:61:fc:13:
                    05:d3:a0:59:1d:c5:48:ff:71:d2:f0:0b:d6:46:66:
                    4b:80:8a:08:13:6b:ac:b2:96:ab:48:01:cd:75:eb:
                    7c:61:1c:f1:99:5b:94:23:68:1a:0b:21:40:c1:59:
                    b3:25:ba:e8:c8:af:f0:8d:df:6a:7d:92:ef:6d:13:
                    01:d7:c8:7b:74:c7:62:d1:c4:c4:ef:91:29:6f:99:
                    bc:65:0f:e5:23:81:9d:19:b5:1e:12:2e:ef:18:71:
                    35:4f:98:04:4e:09:61:86:52:92:8b:aa:03:db:c0:
                    fc:cd:ce:af:57:a1:9d:d9:11:6c:dc:2a:59:c2:40:
                    d7:7b:84:76:a5:6a:7b:d4:07:c1:1b:cb:fc:10:e3:
                    6e:9d:c9:92:34:f0:19:9f:de:93:30:b7:47:1b:8c:
                    0b:a4:ef:5c:4a:f7:49:0b:5c:bf:4a:68:b0:da:35:
                    a7:ef:64:cd:32:8d:d2:d9:32:a6:20:0e:0a:3f:1e:
                    31:06:c1
                Exponent: 65537 (0x10001)
        X509v3 extensions:
            X509v3 Basic Constraints: 
                CA:FALSE
            X509v3 Subject Alternative Name: 
                DNS:mosquitto, DNS:cse, DNS:zigbee2mqtt, DNS:nodered, DNS:portainer, DNS:grafana
            X509v3 Subject Key Identifier: 
                3A:3D:BB:37:CE:3A:52:0A:23:9E:07:DD:F3:23:74:1A:A8:1A:30:1E
    Signature Algorithm: sha512WithRSAEncryption
         8a:8f:69:bc:3d:64:ae:c7:d1:12:28:bd:ec:c6:8e:24:48:f9:
         9f:0f:23:95:3a:99:c2:6c:5c:34:91:ba:99:af:ee:24:d6:2f:
         9f:6c:d1:03:cd:d7:99:bc:bd:74:ce:8a:1b:80:7c:ee:84:df:
         7d:05:cc:2d:ca:84:fe:c0:55:82:c0:65:02:ca:60:ac:fe:d6:
         e3:af:e7:e6:73:9e:40:ee:2a:e4:21:49:f7:28:1b:e5:5b:49:
         16:32:c1:32:ac:4e:65:b8:ab:6c:27:20:e0:2e:aa:07:b3:e9:
         be:cc:12:76:61:4b:92:a1:8a:23:f8:73:54:2a:cb:16:71:74:
         ad:51:b1:98:cf:d8:37:33:08:75:f4:44:dc:f3:ab:ce:a5:d3:
         14:e0:49:18:b1:41:e9:0c:9e:43:ae:5a:5d:b9:ed:79:03:9b:
         9c:4b:3c:0c:a4:8c:a7:ec:39:8f:a1:29:34:76:8e:34:00:5c:
         e3:f7:68:c2:e5:32:74:5c:da:19:0b:0f:11:bb:28:7f:44:08:
         89:5a:d9:8a:9e:35:9a:87:1d:9c:41:9c:cf:c9:dd:cc:31:b2:
         80:85:55:aa:df:63:e9:87:b6:47:26:c5:99:3b:48:46:6c:0f:
         07:bb:4d:28:00:45:b5:71:d1:7f:20:78:1f:a7:cb:b0:c7:d8:
         93:0a:27:52:b9:6f:74:ce:65:b5:8e:ee:1d:d5:f7:65:57:64:
         4b:69:27:54:eb:b5:fb:d4:b8:25:2d:5b:43:2d:18:d0:7f:3d:
         25:eb:7a:6f:0f:92:a6:89:97:ee:df:3a:c6:00:f7:d1:5b:fe:
         57:a4:af:5c:d0:27:2e:cb:1a:51:17:53:95:14:e7:aa:d1:af:
         cf:94:e1:55:4f:a5:8c:c6:c9:83:9c:6d:c1:9a:38:3f:32:cf:
         03:7f:24:2a:57:ca:7e:e2:3e:bf:14:31:25:0c:64:99:cb:13:
         19:86:8d:2b:61:5d:1a:a7:d8:38:db:39:45:05:01:0b:7a:3c:
         01:3e:d0:08:3c:61:40:44:9c:0b:25:97:ff:c4:d5:bd:b3:ca:
         3c:c7:15:0d:cb:a2:38:c3:d8:c1:ea:79:34:70:e9:f2:4f:17:
         ba:b6:98:8f:ef:8a:f3:06:68:12:99:23:46:ad:f2:dd:9d:fa:
         98:10:bb:61:a7:16:d0:9f:c0:f8:70:2a:d6:90:8c:64:f4:ce:
         91:cc:ab:3c:1a:94:df:68:92:d6:29:43:0c:e0:1d:97:d5:06:
         0b:7f:eb:21:66:6f:7a:4f:98:ef:f9:24:09:c2:1c:18:1b:03:
         9a:d4:d8:40:08:e3:ea:74:93:7c:9c:ea:1f:01:58:62:70:a9:
         e0:b2:c6:05:8b:22:7f:d3
-----BEGIN CERTIFICATE-----
MIIFhTCCA22gAwIBAgIBATANBgkqhkiG9w0BAQ0FADBVMQswCQYDVQQGEwJBVDEP
MA0GA1UECAwGVmllbm5hMQ8wDQYDVQQHDAZWaWVubmExEDAOBgNVBAoMB01JT19B
SUQxEjAQBgNVBAMMCWxvY2FsaG9zdDAeFw0yMjExMDYyMzA1MjVaFw0yMzExMDYy
MzA1MjVaMEQxCzAJBgNVBAYTAkFUMQ8wDQYDVQQIDAZWaWVubmExEDAOBgNVBAoM
B01JT19BSUQxEjAQBgNVBAMMCWxvY2FsaG9zdDCCAiIwDQYJKoZIhvcNAQEBBQAD
ggIPADCCAgoCggIBALjlBZzz9OK7Vr8MNDZKlciDx5nOruZI06XeMXzNEpLLRDEV
dBKIxl9MSu4COx+7MhLcfsDC4ba0PtgX2yJMR3zPxn0QjymfWHqOUWP48Gy3MgwX
4QfmMq51rF8g205ZIZhc+2MQAu3DQWVUTgKdNc0c0HbDyhX0LU1kl56qVu6eAH7k
IJRuj3txSd8yqEbXNQRKAUqvhZhSUMhIcDcDef8w12aPeeaqwWiJ1oKntJDWAwhu
5Byly6JzyG9CNyx5G+8CQOnu2rokCpEHUu5GLIqAMOmBcungY9EHVSHVahslSeCS
24v8DuxirTKMBZOb/7DK4ZSLNW7HuZ/+TF/MbL37zQlOBRvSkC+l8DRZppuWMMHS
ltM5KXKOU3KXcXRcOeeeEStwp/TEw8t27mE9wJg2HAIO5lzITZSEJkvmhz4wzpG6
2cNfYfwTBdOgWR3FSP9x0vAL1kZmS4CKCBNrrLKWq0gBzXXrfGEc8ZlblCNoGgsh
QMFZsyW66Miv8I3fan2S720TAdfIe3THYtHExO+RKW+ZvGUP5SOBnRm1HhIu7xhx
NU+YBE4JYYZSkouqA9vA/M3Or1ehndkRbNwqWcJA13uEdqVqe9QHwRvL/BDjbp3J
kjTwGZ/ekzC3RxuMC6TvXEr3SQtcv0posNo1p+9kzTKN0tkypiAOCj8eMQbBAgMB
AAGjcTBvMAkGA1UdEwQCMAAwQwYDVR0RBDwwOoIJbW9zcXVpdHRvggNjc2WCC3pp
Z2JlZTJtcXR0ggdub2RlcmVkgglwb3J0YWluZXKCB2dyYWZhbmEwHQYDVR0OBBYE
FDo9uzfOOlIKI54H3fMjdBqoGjAeMA0GCSqGSIb3DQEBDQUAA4ICAQCKj2m8PWSu
x9ESKL3sxo4kSPmfDyOVOpnCbFw0kbqZr+4k1i+fbNEDzdeZvL10zoobgHzuhN99
BcwtyoT+wFWCwGUCymCs/tbjr+fmc55A7irkIUn3KBvlW0kWMsEyrE5luKtsJyDg
LqoHs+m+zBJ2YUuSoYoj+HNUKssWcXStUbGYz9g3Mwh19ETc86vOpdMU4EkYsUHp
DJ5Drlpdue15A5ucSzwMpIyn7DmPoSk0do40AFzj92jC5TJ0XNoZCw8Ruyh/RAiJ
WtmKnjWahx2cQZzPyd3MMbKAhVWq32Pph7ZHJsWZO0hGbA8Hu00oAEW1cdF/IHgf
p8uwx9iTCidSuW90zmW1ju4d1fdlV2RLaSdU67X71LglLVtDLRjQfz0l63pvD5Km
iZfu3zrGAPfRW/5XpK9c0CcuyxpRF1OVFOeq0a/PlOFVT6WMxsmDnG3Bmjg/Ms8D
fyQqV8p+4j6/FDElDGSZyxMZho0rYV0ap9g42zlFBQELejwBPtAIPGFARJwLJZf/
xNW9s8o8xxUNy6I4w9jB6nk0cOnyTxe6tpiP74rzBmgSmSNGrfLdnfqYELthpxbQ
n8D4cCrWkIxk9M6RzKs8GpTfaJLWKUMM4B2X1QYLf+shZm96T5jv+SQJwhwYGwOa
1NhACOPqdJN8nOofAVhicKngssYFiyJ/0w==
-----END CERTIFICATE-----
